target datalayout = "e-m:e-p270:32:32-p271:32:32-p272:64:64-i64:64-i128:128-f80:128-n8:16:32:64-S128"
target triple = "x86_64-pc-linux-gnu"

%struct.JSValue = type { %union.JSValueUnion, i64 }
%union.JSValueUnion = type { double }

@.str.45 = private unnamed_addr constant [33 x i8] c"read/write array buffer overflow\00", align 1

; Function Attrs: nounwind uwtable
define internal { i64, i64 } @__JS_NewFloat64(ptr noundef %0, double noundef %1) #0 {
  %3 = alloca %struct.JSValue, align 8
  %4 = alloca ptr, align 8
  %5 = alloca double, align 8
  store ptr %0, ptr %4, align 8
  store double %1, ptr %5, align 8
  %6 = getelementptr inbounds %struct.JSValue, ptr %3, i32 0, i32 1
  store i64 7, ptr %6, align 8
  %7 = load double, ptr %5, align 8
  %8 = getelementptr inbounds %struct.JSValue, ptr %3, i32 0, i32 0
  store double %7, ptr %8, align 8
  %9 = load { i64, i64 }, ptr %3, align 8
  ret { i64, i64 } %9
}

; Function Attrs: nounwind uwtable
define internal i64 @js_get_errno(i64 noundef %0) #0 {
  %2 = alloca i64, align 8
  store i64 %0, ptr %2, align 8
  %3 = load i64, ptr %2, align 8
  %4 = icmp eq i64 %3, -1
  br i1 %4, label %5, label %10

5:                                                ; preds = %1
  %6 = call ptr @__errno_location() #10
  %7 = load i32, ptr %6, align 4
  %8 = sub i32 0, %7
  %9 = sext i32 %8 to i64
  store i64 %9, ptr %2, align 8
  br label %10

10:                                               ; preds = %5, %1
  %11 = load i64, ptr %2, align 8
  ret i64 %11
}

; Function Attrs: nounwind uwtable
define internal { i64, i64 } @js_os_read_write(ptr noundef %0, i64 %1, i64 %2, i32 noundef %3, ptr noundef %4, i32 noundef %5) #0 {
  %7 = alloca %struct.JSValue, align 8
  %8 = alloca ptr, align 8
  %9 = alloca i32, align 4
  %10 = alloca %struct.JSValue, align 8
  %11 = alloca ptr, align 8
  %12 = alloca i64, align 8
  %13 = alloca %struct.JSValue, align 8
  %14 = alloca %struct.JSValue, align 8
  %15 = alloca %struct.JSValue, align 8
  %16 = alloca %struct.JSValue, align 8
  %17 = alloca ptr, align 8
  %18 = alloca i32, align 4
  %19 = alloca ptr, align 8
  %20 = alloca i32, align 4
  %21 = alloca i32, align 4
  %22 = alloca i64, align 8
  %23 = alloca i64, align 8
  %24 = alloca i64, align 8
  %25 = alloca i64, align 8
  %26 = alloca ptr, align 8
  %27 = getelementptr inbounds { i64, i64 }, ptr %16, i32 0, i32 0
  store i64 %1, ptr %27, align 8
  %28 = getelementptr inbounds { i64, i64 }, ptr %16, i32 0, i32 1
  store i64 %2, ptr %28, align 8
  store ptr %0, ptr %17, align 8
  store i32 %3, ptr %18, align 4
  store ptr %4, ptr %19, align 8
  store i32 %5, ptr %20, align 4
  %29 = load ptr, ptr %17, align 8
  %30 = load ptr, ptr %19, align 8
  %31 = getelementptr %struct.JSValue, ptr %30, i64 0
  %32 = getelementptr inbounds { i64, i64 }, ptr %31, i32 0, i32 0
  %33 = load i64, ptr %32, align 8
  %34 = getelementptr inbounds { i64, i64 }, ptr %31, i32 0, i32 1
  %35 = load i64, ptr %34, align 8
  %36 = call i32 @JS_ToInt32(ptr noundef %29, ptr noundef %21, i64 %33, i64 %35)
  %37 = icmp ne i32 %36, 0
  br i1 %37, label %38, label %41

38:                                               ; preds = %6
  %39 = getelementptr inbounds %struct.JSValue, ptr %15, i32 0, i32 0
  store i32 0, ptr %39, align 8
  %40 = getelementptr inbounds %struct.JSValue, ptr %15, i32 0, i32 1
  store i64 6, ptr %40, align 8
  br label %145

41:                                               ; preds = %6
  %42 = load ptr, ptr %17, align 8
  %43 = load ptr, ptr %19, align 8
  %44 = getelementptr %struct.JSValue, ptr %43, i64 2
  %45 = getelementptr inbounds { i64, i64 }, ptr %44, i32 0, i32 0
  %46 = load i64, ptr %45, align 8
  %47 = getelementptr inbounds { i64, i64 }, ptr %44, i32 0, i32 1
  %48 = load i64, ptr %47, align 8
  %49 = call i32 @JS_ToIndex(ptr noundef %42, ptr noundef %22, i64 %46, i64 %48)
  %50 = icmp ne i32 %49, 0
  br i1 %50, label %51, label %54

51:                                               ; preds = %41
  %52 = getelementptr inbounds %struct.JSValue, ptr %15, i32 0, i32 0
  store i32 0, ptr %52, align 8
  %53 = getelementptr inbounds %struct.JSValue, ptr %15, i32 0, i32 1
  store i64 6, ptr %53, align 8
  br label %145

54:                                               ; preds = %41
  %55 = load ptr, ptr %17, align 8
  %56 = load ptr, ptr %19, align 8
  %57 = getelementptr %struct.JSValue, ptr %56, i64 3
  %58 = getelementptr inbounds { i64, i64 }, ptr %57, i32 0, i32 0
  %59 = load i64, ptr %58, align 8
  %60 = getelementptr inbounds { i64, i64 }, ptr %57, i32 0, i32 1
  %61 = load i64, ptr %60, align 8
  %62 = call i32 @JS_ToIndex(ptr noundef %55, ptr noundef %23, i64 %59, i64 %61)
  %63 = icmp ne i32 %62, 0
  br i1 %63, label %64, label %67

64:                                               ; preds = %54
  %65 = getelementptr inbounds %struct.JSValue, ptr %15, i32 0, i32 0
  store i32 0, ptr %65, align 8
  %66 = getelementptr inbounds %struct.JSValue, ptr %15, i32 0, i32 1
  store i64 6, ptr %66, align 8
  br label %145

67:                                               ; preds = %54
  %68 = load ptr, ptr %17, align 8
  %69 = load ptr, ptr %19, align 8
  %70 = getelementptr %struct.JSValue, ptr %69, i64 1
  %71 = getelementptr inbounds { i64, i64 }, ptr %70, i32 0, i32 0
  %72 = load i64, ptr %71, align 8
  %73 = getelementptr inbounds { i64, i64 }, ptr %70, i32 0, i32 1
  %74 = load i64, ptr %73, align 8
  %75 = call ptr @JS_GetArrayBuffer(ptr noundef %68, ptr noundef %24, i64 %72, i64 %74)
  store ptr %75, ptr %26, align 8
  %76 = load ptr, ptr %26, align 8
  %77 = icmp ne ptr %76, null
  br i1 %77, label %81, label %78

78:                                               ; preds = %67
  %79 = getelementptr inbounds %struct.JSValue, ptr %15, i32 0, i32 0
  store i32 0, ptr %79, align 8
  %80 = getelementptr inbounds %struct.JSValue, ptr %15, i32 0, i32 1
  store i64 6, ptr %80, align 8
  br label %145

81:                                               ; preds = %67
  %82 = load i64, ptr %22, align 8
  %83 = load i64, ptr %23, align 8
  %84 = add i64 %82, %83
  %85 = load i64, ptr %24, align 8
  %86 = icmp ugt i64 %84, %85
  br i1 %86, label %87, label %94

87:                                               ; preds = %81
  %88 = load ptr, ptr %17, align 8
  %89 = call { i64, i64 } (ptr, ptr, ...) @JS_ThrowRangeError(ptr noundef %88, ptr noundef @.str.45)
  %90 = getelementptr inbounds { i64, i64 }, ptr %15, i32 0, i32 0
  %91 = extractvalue { i64, i64 } %89, 0
  store i64 %91, ptr %90, align 8
  %92 = getelementptr inbounds { i64, i64 }, ptr %15, i32 0, i32 1
  %93 = extractvalue { i64, i64 } %89, 1
  store i64 %93, ptr %92, align 8
  br label %145

94:                                               ; preds = %81
  %95 = load i32, ptr %20, align 4
  %96 = icmp ne i32 %95, 0
  br i1 %96, label %97, label %105

97:                                               ; preds = %94
  %98 = load i32, ptr %21, align 4
  %99 = load ptr, ptr %26, align 8
  %100 = load i64, ptr %22, align 8
  %101 = getelementptr i8, ptr %99, i64 %100
  %102 = load i64, ptr %23, align 8
  %103 = call i64 @write(i32 noundef %98, ptr noundef %101, i64 noundef %102)
  %104 = call i64 @js_get_errno(i64 noundef %103)
  store i64 %104, ptr %25, align 8
  br label %113

105:                                              ; preds = %94
  %106 = load i32, ptr %21, align 4
  %107 = load ptr, ptr %26, align 8
  %108 = load i64, ptr %22, align 8
  %109 = getelementptr i8, ptr %107, i64 %108
  %110 = load i64, ptr %23, align 8
  %111 = call i64 @read(i32 noundef %106, ptr noundef %109, i64 noundef %110)
  %112 = call i64 @js_get_errno(i64 noundef %111)
  store i64 %112, ptr %25, align 8
  br label %113

113:                                              ; preds = %105, %97
  %114 = load ptr, ptr %17, align 8
  %115 = load i64, ptr %25, align 8
  store ptr %114, ptr %11, align 8
  store i64 %115, ptr %12, align 8
  %116 = load i64, ptr %12, align 8
  %117 = load i64, ptr %12, align 8
  %118 = trunc i64 %117 to i32
  %119 = sext i32 %118 to i64
  %120 = icmp eq i64 %116, %119
  br i1 %120, label %121, label %131

121:                                              ; preds = %113
  %122 = load ptr, ptr %11, align 8
  %123 = load i64, ptr %12, align 8
  %124 = trunc i64 %123 to i32
  store ptr %122, ptr %8, align 8
  store i32 %124, ptr %9, align 4
  %125 = load i32, ptr %9, align 4
  store i32 %125, ptr %7, align 8
  %126 = getelementptr inbounds %struct.JSValue, ptr %7, i32 0, i32 1
  store i64 0, ptr %126, align 8
  %127 = load { i64, i64 }, ptr %7, align 8
  %128 = extractvalue { i64, i64 } %127, 0
  store i64 %128, ptr %13, align 8
  %129 = getelementptr inbounds { i64, i64 }, ptr %13, i32 0, i32 1
  %130 = extractvalue { i64, i64 } %127, 1
  store i64 %130, ptr %129, align 8
  call void @llvm.memcpy.p0.p0.i64(ptr align 8 %10, ptr align 8 %13, i64 16, i1 false)
  br label %139

131:                                              ; preds = %113
  %132 = load ptr, ptr %11, align 8
  %133 = load i64, ptr %12, align 8
  %134 = sitofp i64 %133 to double
  %135 = call { i64, i64 } @__JS_NewFloat64(ptr noundef %132, double noundef %134)
  %136 = extractvalue { i64, i64 } %135, 0
  store i64 %136, ptr %14, align 8
  %137 = getelementptr inbounds { i64, i64 }, ptr %14, i32 0, i32 1
  %138 = extractvalue { i64, i64 } %135, 1
  store i64 %138, ptr %137, align 8
  call void @llvm.memcpy.p0.p0.i64(ptr align 8 %10, ptr align 8 %14, i64 16, i1 false)
  br label %139

139:                                              ; preds = %131, %121
  %140 = load { i64, i64 }, ptr %10, align 8
  %141 = getelementptr inbounds { i64, i64 }, ptr %15, i32 0, i32 0
  %142 = extractvalue { i64, i64 } %140, 0
  store i64 %142, ptr %141, align 8
  %143 = getelementptr inbounds { i64, i64 }, ptr %15, i32 0, i32 1
  %144 = extractvalue { i64, i64 } %140, 1
  store i64 %144, ptr %143, align 8
  br label %145

145:                                              ; preds = %139, %87, %78, %64, %51, %38
  %146 = load { i64, i64 }, ptr %15, align 8
  ret { i64, i64 } %146
}