; Function Attrs: nounwind uwtable
define internal { i64, i64 } @js_os_read_write(ptr noundef %0, i64 %1, i64 %2, i32 %3, ptr nocapture noundef readonly %4, i32 noundef %5) #0 {
  %7 = alloca i32, align 4
  %8 = alloca i64, align 8
  %9 = alloca i64, align 8
  %10 = alloca i64, align 8
  %11 = load i64, ptr %4, align 8
  %12 = getelementptr inbounds i8, ptr %4, i64 8
  %13 = load i64, ptr %12, align 8
  %14 = call i32 @JS_ToInt32(ptr noundef %0, ptr noundef nonnull %7, i64 %11, i64 %13) #29
  %.not = icmp eq i32 %14, 0
  br i1 %.not, label %15, label %60

15:                                               ; preds = %6
  %16 = getelementptr i8, ptr %4, i64 32
  %17 = load i64, ptr %16, align 8
  %18 = getelementptr i8, ptr %4, i64 40
  %19 = load i64, ptr %18, align 8
  %20 = call i32 @JS_ToIndex(ptr noundef %0, ptr noundef nonnull %8, i64 %17, i64 %19) #29
  %.not41 = icmp eq i32 %20, 0
  br i1 %.not41, label %21, label %60

21:                                               ; preds = %15
  %22 = getelementptr i8, ptr %4, i64 48
  %23 = load i64, ptr %22, align 8
  %24 = getelementptr i8, ptr %4, i64 56
  %25 = load i64, ptr %24, align 8
  %26 = call i32 @JS_ToIndex(ptr noundef %0, ptr noundef nonnull %9, i64 %23, i64 %25) #29
  %.not42 = icmp eq i32 %26, 0
  br i1 %.not42, label %27, label %60

27:                                               ; preds = %21
  %28 = getelementptr i8, ptr %4, i64 16
  %29 = load i64, ptr %28, align 8
  %30 = getelementptr i8, ptr %4, i64 24
  %31 = load i64, ptr %30, align 8
  %32 = call ptr @JS_GetArrayBuffer(ptr noundef %0, ptr noundef nonnull %10, i64 %29, i64 %31) #29
  %.not43 = icmp eq ptr %32, null
  br i1 %.not43, label %60, label %33

33:                                               ; preds = %27
  %34 = load i64, ptr %8, align 8
  %35 = load i64, ptr %9, align 8
  %36 = add i64 %35, %34
  %37 = load i64, ptr %10, align 8
  %38 = icmp ugt i64 %36, %37
  br i1 %38, label %39, label %43

39:                                               ; preds = %33
  %40 = call { i64, i64 } (ptr, ptr, ...) @JS_ThrowRangeError(ptr noundef %0, ptr noundef nonnull @.str.45) #29
  %41 = extractvalue { i64, i64 } %40, 0
  %.sroa.7.0.extract.shift = and i64 %41, -4294967296
  %42 = extractvalue { i64, i64 } %40, 1
  br label %60

43:                                               ; preds = %33
  %.not44 = icmp eq i32 %5, 0
  %44 = load i32, ptr %7, align 4
  %45 = getelementptr i8, ptr %32, i64 %34
  br i1 %.not44, label %49, label %46

46:                                               ; preds = %43
  %47 = call i64 @write(i32 noundef %44, ptr noundef %45, i64 noundef %35) #29
  %48 = icmp eq i64 %47, -1
  br i1 %48, label %js_get_errno.exit.sink.split, label %js_get_errno.exit

49:                                               ; preds = %43
  %50 = call i64 @read(i32 noundef %44, ptr noundef %45, i64 noundef %35) #29
  %51 = icmp eq i64 %50, -1
  br i1 %51, label %js_get_errno.exit.sink.split, label %js_get_errno.exit

js_get_errno.exit.sink.split:                     ; preds = %49, %46
  %52 = tail call ptr @__errno_location() #28
  %53 = load i32, ptr %52, align 4
  %54 = sub i32 0, %53
  %55 = sext i32 %54 to i64
  br label %js_get_errno.exit

js_get_errno.exit:                                ; preds = %js_get_errno.exit.sink.split, %49, %46
  %.0 = phi i64 [ %47, %46 ], [ %50, %49 ], [ %55, %js_get_errno.exit.sink.split ]
  %56 = add i64 %.0, 2147483648
  %57 = icmp ult i64 %56, 4294967296
  %.sroa.038.0.insert.ext = and i64 %.0, 4294967295
  %58 = sitofp i64 %.0 to double
  %59 = bitcast double %58 to i64
  %.sroa.034.0 = select i1 %57, i64 %.sroa.038.0.insert.ext, i64 %59
  %.sroa.3.0 = select i1 %57, i64 0, i64 7
  %.sroa.7.0.extract.shift16 = and i64 %.sroa.034.0, -4294967296
  br label %60

60:                                               ; preds = %27, %21, %15, %6, %js_get_errno.exit, %39
  %.sroa.014.0 = phi i64 [ %41, %39 ], [ %.sroa.034.0, %js_get_errno.exit ], [ 0, %6 ], [ 0, %15 ], [ 0, %21 ], [ 0, %27 ]
  %.sroa.7.sroa.0.0 = phi i64 [ %.sroa.7.0.extract.shift, %39 ], [ %.sroa.7.0.extract.shift16, %js_get_errno.exit ], [ 0, %6 ], [ 0, %15 ], [ 0, %21 ], [ 0, %27 ]
  %.sroa.7.sroa.3.0 = phi i64 [ %42, %39 ], [ %.sroa.3.0, %js_get_errno.exit ], [ 6, %6 ], [ 6, %15 ], [ 6, %21 ], [ 6, %27 ]
  %.sroa.014.0.insert.ext = and i64 %.sroa.014.0, 4294967295
  %.sroa.014.0.insert.insert = or disjoint i64 %.sroa.7.sroa.0.0, %.sroa.014.0.insert.ext
  %.fca.0.insert = insertvalue { i64, i64 } poison, i64 %.sroa.014.0.insert.insert, 0
  %.fca.1.insert = insertvalue { i64, i64 } %.fca.0.insert, i64 %.sroa.7.sroa.3.0, 1
  ret { i64, i64 } %.fca.1.insert
}